target datalayout = "e-m:e-p270:32:32-p271:32:32-p272:64:64-i64:64-i128:128-f80:128-n8:16:32:64-S128"
target triple = "x86_64-pc-linux-gnu"

@l___private_Lean_Meta_Tactic_Grind_EMatchTheorem_0__Lean_Meta_Grind_NormalizePattern_reprPatternArgKind____x40_Lean_Meta_Tactic_Grind_EMatchTheorem___hyg_3407____closed__4 = internal global ptr null, align 8
@l___private_Lean_Meta_Tactic_Grind_EMatchTheorem_0__Lean_Meta_Grind_NormalizePattern_reprPatternArgKind____x40_Lean_Meta_Tactic_Grind_EMatchTheorem___hyg_3407____closed__6 = internal global ptr null, align 8
@l___private_Lean_Meta_Tactic_Grind_EMatchTheorem_0__Lean_Meta_Grind_NormalizePattern_reprPatternArgKind____x40_Lean_Meta_Tactic_Grind_EMatchTheorem___hyg_3407____closed__10 = internal global ptr null, align 8
@l___private_Lean_Meta_Tactic_Grind_EMatchTheorem_0__Lean_Meta_Grind_NormalizePattern_reprPatternArgKind____x40_Lean_Meta_Tactic_Grind_EMatchTheorem___hyg_3407____closed__12 = internal global ptr null, align 8
@l___private_Lean_Meta_Tactic_Grind_EMatchTheorem_0__Lean_Meta_Grind_NormalizePattern_reprPatternArgKind____x40_Lean_Meta_Tactic_Grind_EMatchTheorem___hyg_3407____closed__16 = internal global ptr null, align 8
@l___private_Lean_Meta_Tactic_Grind_EMatchTheorem_0__Lean_Meta_Grind_NormalizePattern_reprPatternArgKind____x40_Lean_Meta_Tactic_Grind_EMatchTheorem___hyg_3407____closed__18 = internal global ptr null, align 8
@l___private_Lean_Meta_Tactic_Grind_EMatchTheorem_0__Lean_Meta_Grind_NormalizePattern_reprPatternArgKind____x40_Lean_Meta_Tactic_Grind_EMatchTheorem___hyg_3407____closed__22 = internal global ptr null, align 8
@l___private_Lean_Meta_Tactic_Grind_EMatchTheorem_0__Lean_Meta_Grind_NormalizePattern_reprPatternArgKind____x40_Lean_Meta_Tactic_Grind_EMatchTheorem___hyg_3407____closed__24 = internal global ptr null, align 8

; Function Attrs: alwaysinline nounwind uwtable
define internal zeroext i1 @lean_is_scalar(ptr noundef %0) #1 {
  %2 = alloca ptr, align 8
  store ptr %0, ptr %2, align 8, !tbaa !8
  %3 = load ptr, ptr %2, align 8, !tbaa !8
  %4 = ptrtoint ptr %3 to i64
  %5 = and i64 %4, 1
  %6 = icmp eq i64 %5, 1
  ret i1 %6
}

; Function Attrs: inlinehint nounwind uwtable
define internal ptr @lean_box(i64 noundef %0) #0 {
  %2 = alloca i64, align 8
  store i64 %0, ptr %2, align 8, !tbaa !4
  %3 = load i64, ptr %2, align 8, !tbaa !4
  %4 = shl i64 %3, 1
  %5 = or i64 %4, 1
  %6 = inttoptr i64 %5 to ptr
  ret ptr %6
}

; Function Attrs: alwaysinline nounwind uwtable
define internal zeroext i1 @lean_nat_le(ptr noundef %0, ptr noundef %1) #1 {
  %3 = alloca i1, align 1
  %4 = alloca ptr, align 8
  %5 = alloca ptr, align 8
  store ptr %0, ptr %4, align 8, !tbaa !8
  store ptr %1, ptr %5, align 8, !tbaa !8
  %6 = load ptr, ptr %4, align 8, !tbaa !8
  %7 = call zeroext i1 @lean_is_scalar(ptr noundef %6)
  br i1 %7, label %8, label %11

8:                                                ; preds = %2
  %9 = load ptr, ptr %5, align 8, !tbaa !8
  %10 = call zeroext i1 @lean_is_scalar(ptr noundef %9)
  br label %11

11:                                               ; preds = %8, %2
  %12 = phi i1 [ false, %2 ], [ %10, %8 ]
  %13 = zext i1 %12 to i32
  %14 = sext i32 %13 to i64
  %15 = call i64 @llvm.expect.i64(i64 %14, i64 1)
  %16 = icmp ne i64 %15, 0
  br i1 %16, label %17, label %21

17:                                               ; preds = %11
  %18 = load ptr, ptr %4, align 8, !tbaa !8
  %19 = load ptr, ptr %5, align 8, !tbaa !8
  %20 = icmp ule ptr %18, %19
  store i1 %20, ptr %3, align 1
  br label %25

21:                                               ; preds = %11
  %22 = load ptr, ptr %4, align 8, !tbaa !8
  %23 = load ptr, ptr %5, align 8, !tbaa !8
  %24 = call zeroext i1 @lean_nat_big_le(ptr noundef %22, ptr noundef %23)
  store i1 %24, ptr %3, align 1
  br label %25

25:                                               ; preds = %21, %17
  %26 = load i1, ptr %3, align 1
  ret i1 %26
}

; Function Attrs: inlinehint nounwind uwtable
define internal ptr @lean_usize_to_nat(i64 noundef %0) #0 {
  %2 = alloca ptr, align 8
  %3 = alloca i64, align 8
  store i64 %0, ptr %3, align 8, !tbaa !4
  %4 = load i64, ptr %3, align 8, !tbaa !4
  %5 = icmp ule i64 %4, 9223372036854775807
  %6 = zext i1 %5 to i32
  %7 = sext i32 %6 to i64
  %8 = call i64 @llvm.expect.i64(i64 %7, i64 1)
  %9 = icmp ne i64 %8, 0
  br i1 %9, label %10, label %13

10:                                               ; preds = %1
  %11 = load i64, ptr %3, align 8, !tbaa !4
  %12 = call ptr @lean_box(i64 noundef %11)
  store ptr %12, ptr %2, align 8
  br label %16

13:                                               ; preds = %1
  %14 = load i64, ptr %3, align 8, !tbaa !4
  %15 = call ptr @lean_big_usize_to_nat(i64 noundef %14)
  store ptr %15, ptr %2, align 8
  br label %16

16:                                               ; preds = %13, %10
  %17 = load ptr, ptr %2, align 8
  ret ptr %17
}

; Function Attrs: alwaysinline nounwind uwtable
define internal zeroext i8 @lean_nat_dec_le(ptr noundef %0, ptr noundef %1) #1 {
  %3 = alloca ptr, align 8
  %4 = alloca ptr, align 8
  store ptr %0, ptr %3, align 8, !tbaa !8
  store ptr %1, ptr %4, align 8, !tbaa !8
  %5 = load ptr, ptr %3, align 8, !tbaa !8
  %6 = load ptr, ptr %4, align 8, !tbaa !8
  %7 = call zeroext i1 @lean_nat_le(ptr noundef %5, ptr noundef %6)
  %8 = zext i1 %7 to i8
  ret i8 %8
}

; Function Attrs: inlinehint nounwind uwtable
define internal ptr @lean_unsigned_to_nat(i32 noundef %0) #0 {
  %2 = alloca i32, align 4
  store i32 %0, ptr %2, align 4, !tbaa !12
  %3 = load i32, ptr %2, align 4, !tbaa !12
  %4 = zext i32 %3 to i64
  %5 = call ptr @lean_usize_to_nat(i64 noundef %4)
  ret ptr %5
}

; Function Attrs: nounwind uwtable
define ptr @l___private_Lean_Meta_Tactic_Grind_EMatchTheorem_0__Lean_Meta_Grind_NormalizePattern_reprPatternArgKind____x40_Lean_Meta_Tactic_Grind_EMatchTheorem___hyg_3407_(i8 noundef zeroext %0, ptr noundef %1) #2 {
  %3 = alloca ptr, align 8
  %4 = alloca i8, align 1
  %5 = alloca ptr, align 8
  %6 = alloca ptr, align 8
  %7 = alloca i8, align 1
  %8 = alloca ptr, align 8
  %9 = alloca ptr, align 8
  %10 = alloca i32, align 4
  %11 = alloca ptr, align 8
  %12 = alloca ptr, align 8
  %13 = alloca ptr, align 8
  %14 = alloca i8, align 1
  %15 = alloca ptr, align 8
  %16 = alloca ptr, align 8
  %17 = alloca ptr, align 8
  %18 = alloca ptr, align 8
  %19 = alloca ptr, align 8
  %20 = alloca i8, align 1
  %21 = alloca ptr, align 8
  %22 = alloca ptr, align 8
  %23 = alloca ptr, align 8
  %24 = alloca ptr, align 8
  %25 = alloca ptr, align 8
  %26 = alloca i8, align 1
  %27 = alloca ptr, align 8
  %28 = alloca ptr, align 8
  %29 = alloca ptr, align 8
  %30 = alloca ptr, align 8
  store i8 %0, ptr %4, align 1, !tbaa !14
  store ptr %1, ptr %5, align 8, !tbaa !8
  br label %31

31:                                               ; preds = %2
  %32 = load i8, ptr %4, align 1, !tbaa !14
  %33 = zext i8 %32 to i32
  switch i32 %33, label %97 [
    i32 0, label %34
    i32 1, label %55
    i32 2, label %76
  ]

34:                                               ; preds = %31
  call void @llvm.lifetime.start.p0(i64 8, ptr %6) #7
  call void @llvm.lifetime.start.p0(i64 1, ptr %7) #7
  %35 = call ptr @lean_unsigned_to_nat(i32 noundef 1024)
  store ptr %35, ptr %6, align 8, !tbaa !8
  %36 = load ptr, ptr %6, align 8, !tbaa !8
  %37 = load ptr, ptr %5, align 8, !tbaa !8
  %38 = call zeroext i8 @lean_nat_dec_le(ptr noundef %36, ptr noundef %37)
  store i8 %38, ptr %7, align 1, !tbaa !14
  %39 = load i8, ptr %7, align 1, !tbaa !14
  %40 = zext i8 %39 to i32
  %41 = icmp eq i32 %40, 0
  br i1 %41, label %42, label %48

42:                                               ; preds = %34
  call void @llvm.lifetime.start.p0(i64 8, ptr %8) #7
  call void @llvm.lifetime.start.p0(i64 8, ptr %9) #7
  %43 = load ptr, ptr @l___private_Lean_Meta_Tactic_Grind_EMatchTheorem_0__Lean_Meta_Grind_NormalizePattern_reprPatternArgKind____x40_Lean_Meta_Tactic_Grind_EMatchTheorem___hyg_3407____closed__4, align 8, !tbaa !8
  store ptr %43, ptr %8, align 8, !tbaa !8
  %44 = load ptr, ptr %8, align 8, !tbaa !8
  %45 = load ptr, ptr %5, align 8, !tbaa !8
  %46 = call ptr @l_Repr_addAppParen(ptr noundef %44, ptr noundef %45)
  store ptr %46, ptr %9, align 8, !tbaa !8
  %47 = load ptr, ptr %9, align 8, !tbaa !8
  store ptr %47, ptr %3, align 8
  store i32 1, ptr %10, align 4
  call void @llvm.lifetime.end.p0(i64 8, ptr %9) #7
  call void @llvm.lifetime.end.p0(i64 8, ptr %8) #7
  br label %54

48:                                               ; preds = %34
  call void @llvm.lifetime.start.p0(i64 8, ptr %11) #7
  call void @llvm.lifetime.start.p0(i64 8, ptr %12) #7
  %49 = load ptr, ptr @l___private_Lean_Meta_Tactic_Grind_EMatchTheorem_0__Lean_Meta_Grind_NormalizePattern_reprPatternArgKind____x40_Lean_Meta_Tactic_Grind_EMatchTheorem___hyg_3407____closed__6, align 8, !tbaa !8
  store ptr %49, ptr %11, align 8, !tbaa !8
  %50 = load ptr, ptr %11, align 8, !tbaa !8
  %51 = load ptr, ptr %5, align 8, !tbaa !8
  %52 = call ptr @l_Repr_addAppParen(ptr noundef %50, ptr noundef %51)
  store ptr %52, ptr %12, align 8, !tbaa !8
  %53 = load ptr, ptr %12, align 8, !tbaa !8
  store ptr %53, ptr %3, align 8
  store i32 1, ptr %10, align 4
  call void @llvm.lifetime.end.p0(i64 8, ptr %12) #7
  call void @llvm.lifetime.end.p0(i64 8, ptr %11) #7
  br label %54

54:                                               ; preds = %48, %42
  call void @llvm.lifetime.end.p0(i64 1, ptr %7) #7
  call void @llvm.lifetime.end.p0(i64 8, ptr %6) #7
  br label %118

55:                                               ; preds = %31
  call void @llvm.lifetime.start.p0(i64 8, ptr %13) #7
  call void @llvm.lifetime.start.p0(i64 1, ptr %14) #7
  %56 = call ptr @lean_unsigned_to_nat(i32 noundef 1024)
  store ptr %56, ptr %13, align 8, !tbaa !8
  %57 = load ptr, ptr %13, align 8, !tbaa !8
  %58 = load ptr, ptr %5, align 8, !tbaa !8
  %59 = call zeroext i8 @lean_nat_dec_le(ptr noundef %57, ptr noundef %58)
  store i8 %59, ptr %14, align 1, !tbaa !14
  %60 = load i8, ptr %14, align 1, !tbaa !14
  %61 = zext i8 %60 to i32
  %62 = icmp eq i32 %61, 0
  br i1 %62, label %63, label %69

63:                                               ; preds = %55
  call void @llvm.lifetime.start.p0(i64 8, ptr %15) #7
  call void @llvm.lifetime.start.p0(i64 8, ptr %16) #7
  %64 = load ptr, ptr @l___private_Lean_Meta_Tactic_Grind_EMatchTheorem_0__Lean_Meta_Grind_NormalizePattern_reprPatternArgKind____x40_Lean_Meta_Tactic_Grind_EMatchTheorem___hyg_3407____closed__10, align 8, !tbaa !8
  store ptr %64, ptr %15, align 8, !tbaa !8
  %65 = load ptr, ptr %15, align 8, !tbaa !8
  %66 = load ptr, ptr %5, align 8, !tbaa !8
  %67 = call ptr @l_Repr_addAppParen(ptr noundef %65, ptr noundef %66)
  store ptr %67, ptr %16, align 8, !tbaa !8
  %68 = load ptr, ptr %16, align 8, !tbaa !8
  store ptr %68, ptr %3, align 8
  store i32 1, ptr %10, align 4
  call void @llvm.lifetime.end.p0(i64 8, ptr %16) #7
  call void @llvm.lifetime.end.p0(i64 8, ptr %15) #7
  br label %75

69:                                               ; preds = %55
  call void @llvm.lifetime.start.p0(i64 8, ptr %17) #7
  call void @llvm.lifetime.start.p0(i64 8, ptr %18) #7
  %70 = load ptr, ptr @l___private_Lean_Meta_Tactic_Grind_EMatchTheorem_0__Lean_Meta_Grind_NormalizePattern_reprPatternArgKind____x40_Lean_Meta_Tactic_Grind_EMatchTheorem___hyg_3407____closed__12, align 8, !tbaa !8
  store ptr %70, ptr %17, align 8, !tbaa !8
  %71 = load ptr, ptr %17, align 8, !tbaa !8
  %72 = load ptr, ptr %5, align 8, !tbaa !8
  %73 = call ptr @l_Repr_addAppParen(ptr noundef %71, ptr noundef %72)
  store ptr %73, ptr %18, align 8, !tbaa !8
  %74 = load ptr, ptr %18, align 8, !tbaa !8
  store ptr %74, ptr %3, align 8
  store i32 1, ptr %10, align 4
  call void @llvm.lifetime.end.p0(i64 8, ptr %18) #7
  call void @llvm.lifetime.end.p0(i64 8, ptr %17) #7
  br label %75

75:                                               ; preds = %69, %63
  call void @llvm.lifetime.end.p0(i64 1, ptr %14) #7
  call void @llvm.lifetime.end.p0(i64 8, ptr %13) #7
  br label %118

76:                                               ; preds = %31
  call void @llvm.lifetime.start.p0(i64 8, ptr %19) #7
  call void @llvm.lifetime.start.p0(i64 1, ptr %20) #7
  %77 = call ptr @lean_unsigned_to_nat(i32 noundef 1024)
  store ptr %77, ptr %19, align 8, !tbaa !8
  %78 = load ptr, ptr %19, align 8, !tbaa !8
  %79 = load ptr, ptr %5, align 8, !tbaa !8
  %80 = call zeroext i8 @lean_nat_dec_le(ptr noundef %78, ptr noundef %79)
  store i8 %80, ptr %20, align 1, !tbaa !14
  %81 = load i8, ptr %20, align 1, !tbaa !14
  %82 = zext i8 %81 to i32
  %83 = icmp eq i32 %82, 0
  br i1 %83, label %84, label %90

84:                                               ; preds = %76
  call void @llvm.lifetime.start.p0(i64 8, ptr %21) #7
  call void @llvm.lifetime.start.p0(i64 8, ptr %22) #7
  %85 = load ptr, ptr @l___private_Lean_Meta_Tactic_Grind_EMatchTheorem_0__Lean_Meta_Grind_NormalizePattern_reprPatternArgKind____x40_Lean_Meta_Tactic_Grind_EMatchTheorem___hyg_3407____closed__16, align 8, !tbaa !8
  store ptr %85, ptr %21, align 8, !tbaa !8
  %86 = load ptr, ptr %21, align 8, !tbaa !8
  %87 = load ptr, ptr %5, align 8, !tbaa !8
  %88 = call ptr @l_Repr_addAppParen(ptr noundef %86, ptr noundef %87)
  store ptr %88, ptr %22, align 8, !tbaa !8
  %89 = load ptr, ptr %22, align 8, !tbaa !8
  store ptr %89, ptr %3, align 8
  store i32 1, ptr %10, align 4
  call void @llvm.lifetime.end.p0(i64 8, ptr %22) #7
  call void @llvm.lifetime.end.p0(i64 8, ptr %21) #7
  br label %96

90:                                               ; preds = %76
  call void @llvm.lifetime.start.p0(i64 8, ptr %23) #7
  call void @llvm.lifetime.start.p0(i64 8, ptr %24) #7
  %91 = load ptr, ptr @l___private_Lean_Meta_Tactic_Grind_EMatchTheorem_0__Lean_Meta_Grind_NormalizePattern_reprPatternArgKind____x40_Lean_Meta_Tactic_Grind_EMatchTheorem___hyg_3407____closed__18, align 8, !tbaa !8
  store ptr %91, ptr %23, align 8, !tbaa !8
  %92 = load ptr, ptr %23, align 8, !tbaa !8
  %93 = load ptr, ptr %5, align 8, !tbaa !8
  %94 = call ptr @l_Repr_addAppParen(ptr noundef %92, ptr noundef %93)
  store ptr %94, ptr %24, align 8, !tbaa !8
  %95 = load ptr, ptr %24, align 8, !tbaa !8
  store ptr %95, ptr %3, align 8
  store i32 1, ptr %10, align 4
  call void @llvm.lifetime.end.p0(i64 8, ptr %24) #7
  call void @llvm.lifetime.end.p0(i64 8, ptr %23) #7
  br label %96

96:                                               ; preds = %90, %84
  call void @llvm.lifetime.end.p0(i64 1, ptr %20) #7
  call void @llvm.lifetime.end.p0(i64 8, ptr %19) #7
  br label %118

97:                                               ; preds = %31
  call void @llvm.lifetime.start.p0(i64 8, ptr %25) #7
  call void @llvm.lifetime.start.p0(i64 1, ptr %26) #7
  %98 = call ptr @lean_unsigned_to_nat(i32 noundef 1024)
  store ptr %98, ptr %25, align 8, !tbaa !8
  %99 = load ptr, ptr %25, align 8, !tbaa !8
  %100 = load ptr, ptr %5, align 8, !tbaa !8
  %101 = call zeroext i8 @lean_nat_dec_le(ptr noundef %99, ptr noundef %100)
  store i8 %101, ptr %26, align 1, !tbaa !14
  %102 = load i8, ptr %26, align 1, !tbaa !14
  %103 = zext i8 %102 to i32
  %104 = icmp eq i32 %103, 0
  br i1 %104, label %105, label %111

105:                                              ; preds = %97
  call void @llvm.lifetime.start.p0(i64 8, ptr %27) #7
  call void @llvm.lifetime.start.p0(i64 8, ptr %28) #7
  %106 = load ptr, ptr @l___private_Lean_Meta_Tactic_Grind_EMatchTheorem_0__Lean_Meta_Grind_NormalizePattern_reprPatternArgKind____x40_Lean_Meta_Tactic_Grind_EMatchTheorem___hyg_3407____closed__22, align 8, !tbaa !8
  store ptr %106, ptr %27, align 8, !tbaa !8
  %107 = load ptr, ptr %27, align 8, !tbaa !8
  %108 = load ptr, ptr %5, align 8, !tbaa !8
  %109 = call ptr @l_Repr_addAppParen(ptr noundef %107, ptr noundef %108)
  store ptr %109, ptr %28, align 8, !tbaa !8
  %110 = load ptr, ptr %28, align 8, !tbaa !8
  store ptr %110, ptr %3, align 8
  store i32 1, ptr %10, align 4
  call void @llvm.lifetime.end.p0(i64 8, ptr %28) #7
  call void @llvm.lifetime.end.p0(i64 8, ptr %27) #7
  br label %117

111:                                              ; preds = %97
  call void @llvm.lifetime.start.p0(i64 8, ptr %29) #7
  call void @llvm.lifetime.start.p0(i64 8, ptr %30) #7
  %112 = load ptr, ptr @l___private_Lean_Meta_Tactic_Grind_EMatchTheorem_0__Lean_Meta_Grind_NormalizePattern_reprPatternArgKind____x40_Lean_Meta_Tactic_Grind_EMatchTheorem___hyg_3407____closed__24, align 8, !tbaa !8
  store ptr %112, ptr %29, align 8, !tbaa !8
  %113 = load ptr, ptr %29, align 8, !tbaa !8
  %114 = load ptr, ptr %5, align 8, !tbaa !8
  %115 = call ptr @l_Repr_addAppParen(ptr noundef %113, ptr noundef %114)
  store ptr %115, ptr %30, align 8, !tbaa !8
  %116 = load ptr, ptr %30, align 8, !tbaa !8
  store ptr %116, ptr %3, align 8
  store i32 1, ptr %10, align 4
  call void @llvm.lifetime.end.p0(i64 8, ptr %30) #7
  call void @llvm.lifetime.end.p0(i64 8, ptr %29) #7
  br label %117

117:                                              ; preds = %111, %105
  call void @llvm.lifetime.end.p0(i64 1, ptr %26) #7
  call void @llvm.lifetime.end.p0(i64 8, ptr %25) #7
  br label %118

118:                                              ; preds = %117, %96, %75, %54
  %119 = load ptr, ptr %3, align 8
  ret ptr %119
}